; Function Attrs: mustprogress nounwind uwtable
define internal fastcc void @"_ZSt21__inplace_stable_sortIN9__gnu_cxx17__normal_iteratorIPSt3setImSt4lessImESaImEESt6vectorIS6_SaIS6_EEEENS0_5__ops15_Iter_comp_iterIZN12_GLOBAL__N_120LowerTypeTestsModule27buildBitSetsFromDisjointSetEN4llvm8ArrayRefIPNSG_8MetadataEEENSH_IPNSE_16GlobalTypeMemberEEENSH_IPNSE_17ICallBranchFunnelEEEE3$_0EEEvT_ST_T0_"(ptr %0, ptr %1) unnamed_addr #0 {
  %3 = ptrtoint ptr %1 to i64
  %4 = ptrtoint ptr %0 to i64
  %5 = sub i64 %3, %4
  %6 = icmp slt i64 %5, 720
  br i1 %6, label %common.ret, label %7

common.ret:                                       ; preds = %2
  tail call fastcc void @"_ZSt16__insertion_sortIN9__gnu_cxx17__normal_iteratorIPSt3setImSt4lessImESaImEESt6vectorIS6_SaIS6_EEEENS0_5__ops15_Iter_comp_iterIZN12_GLOBAL__N_120LowerTypeTestsModule27buildBitSetsFromDisjointSetEN4llvm8ArrayRefIPNSG_8MetadataEEENSH_IPNSE_16GlobalTypeMemberEEENSH_IPNSE_17ICallBranchFunnelEEEE3$_0EEEvT_ST_T0_"(ptr %0, ptr %1)
  br label %common.ret25

common.ret25:                                     ; preds = %7, %common.ret
  ret void

7:                                                ; preds = %2
  %8 = udiv exact i64 %5, 48
  %9 = lshr i64 %8, 1
  %10 = getelementptr inbounds nuw %"class.std::set", ptr %0, i64 %9
  tail call fastcc void @"_ZSt21__inplace_stable_sortIN9__gnu_cxx17__normal_iteratorIPSt3setImSt4lessImESaImEESt6vectorIS6_SaIS6_EEEENS0_5__ops15_Iter_comp_iterIZN12_GLOBAL__N_120LowerTypeTestsModule27buildBitSetsFromDisjointSetEN4llvm8ArrayRefIPNSG_8MetadataEEENSH_IPNSE_16GlobalTypeMemberEEENSH_IPNSE_17ICallBranchFunnelEEEE3$_0EEEvT_ST_T0_"(ptr %0, ptr %10)
  tail call fastcc void @"_ZSt21__inplace_stable_sortIN9__gnu_cxx17__normal_iteratorIPSt3setImSt4lessImESaImEESt6vectorIS6_SaIS6_EEEENS0_5__ops15_Iter_comp_iterIZN12_GLOBAL__N_120LowerTypeTestsModule27buildBitSetsFromDisjointSetEN4llvm8ArrayRefIPNSG_8MetadataEEENSH_IPNSE_16GlobalTypeMemberEEENSH_IPNSE_17ICallBranchFunnelEEEE3$_0EEEvT_ST_T0_"(ptr %10, ptr %1)
  %11 = ptrtoint ptr %10 to i64
  %12 = sub i64 %3, %11
  %13 = sdiv exact i64 %12, 48
  tail call fastcc void @"_ZSt22__merge_without_bufferIN9__gnu_cxx17__normal_iteratorIPSt3setImSt4lessImESaImEESt6vectorIS6_SaIS6_EEEElNS0_5__ops15_Iter_comp_iterIZN12_GLOBAL__N_120LowerTypeTestsModule27buildBitSetsFromDisjointSetEN4llvm8ArrayRefIPNSG_8MetadataEEENSH_IPNSE_16GlobalTypeMemberEEENSH_IPNSE_17ICallBranchFunnelEEEE3$_0EEEvT_ST_ST_T0_SU_T1_"(ptr %0, ptr %10, ptr %1, i64 noundef %9, i64 noundef %13)
  br label %common.ret25
}